target datalayout = "e-m:e-p270:32:32-p271:32:32-p272:64:64-i64:64-i128:128-f80:128-n8:16:32:64-S128"
target triple = "x86_64-unknown-linux-gnu"

%struct.PCIDevice = type { %struct.DeviceState, i8, i8, ptr, ptr, ptr, ptr, ptr, i32, %struct.PCIReqIDCache, [64 x i8], [7 x %struct.PCIIORegion], %struct.AddressSpace, %struct.MemoryRegion, %struct.MemoryRegion, ptr, ptr, [3 x ptr], i8, i8, i32, i8, i32, ptr, ptr, ptr, ptr, ptr, ptr, %struct.MemoryRegion, %struct.MemoryRegion, %struct.MemoryRegion, ptr, i8, i32, i8, %struct.PCIExpressDevice, ptr, ptr, i32, i8, %struct.MemoryRegion, i32, ptr, ptr, ptr, ptr, ptr, i32 }
%struct.DeviceState = type { %struct.Object, ptr, ptr, i8, i8, i64, ptr, i32, i8, ptr, %struct.NamedGPIOListHead, %struct.NamedClockListHead, %struct.BusStateHead, i32, i32, i32, %struct.ResettableState, ptr, %struct.MemReentrancyGuard }
%struct.Object = type { ptr, ptr, ptr, i32, ptr }
%struct.NamedGPIOListHead = type { ptr }
%struct.NamedClockListHead = type { ptr }
%struct.BusStateHead = type { ptr }
%struct.ResettableState = type { i32, i8, i8 }
%struct.MemReentrancyGuard = type { i8 }
%struct.PCIReqIDCache = type { ptr, i32 }
%struct.PCIIORegion = type { i64, i64, i8, ptr, ptr }
%struct.AddressSpace = type { %struct.rcu_head, ptr, ptr, ptr, i32, i32, ptr, %union.anon, %union.anon.0 }
%struct.rcu_head = type { ptr, ptr }
%union.anon = type { %struct.QTailQLink }
%struct.QTailQLink = type { ptr, ptr }
%union.anon.0 = type { %struct.QTailQLink }
%struct.PCIExpressDevice = type { i8, i8, i8, i16, %struct.PCIEAERLog, i16, i16, i16, %struct.PCIESriovPF, %struct.PCIESriovVF }
%struct.PCIEAERLog = type { i16, i16, ptr }
%struct.PCIESriovPF = type { i16, [7 x i8], ptr, ptr }
%struct.PCIESriovVF = type { ptr, i16 }
%struct.MemoryRegion = type { %struct.Object, i8, i8, i8, i8, i8, i8, i8, i8, i8, i8, ptr, ptr, ptr, ptr, ptr, ptr, i32, i128, i64, ptr, i64, i8, i8, i8, i8, i8, ptr, i64, i32, %union.anon.1, %union.anon.2, %union.anon.3, ptr, i32, ptr, ptr, i8 }
%union.anon.1 = type { %struct.QTailQLink }
%union.anon.2 = type { %struct.QTailQLink }
%union.anon.3 = type { %struct.QTailQLink }
%struct.IVShmemState = type { %struct.PCIDevice, i32, ptr, %struct.CharBackend, i32, i32, i32, %struct.MemoryRegion, ptr, %struct.MemoryRegion, ptr, i32, i32, ptr, i64, i32, i32, ptr }
%struct.CharBackend = type { ptr, ptr, ptr, ptr, ptr, ptr, i32, i32 }
%struct.Peer = type { i32, ptr }
%struct.EventNotifier = type { i32, i32, i8 }

@.str.7 = private unnamed_addr constant [26 x i8] c"../qemu/hw/misc/ivshmem.c\00", align 1
@.str.28 = private unnamed_addr constant [32 x i8] c"posn >= 0 && posn < s->nb_peers\00", align 1
@__PRETTY_FUNCTION__.close_peer_eventfds = private unnamed_addr constant [46 x i8] c"void close_peer_eventfds(IVShmemState *, int)\00", align 1

; Function Attrs: nounwind sspstrong uwtable
define internal void @ivshmem_del_eventfd(ptr noundef %s, i32 noundef %posn, i32 noundef %i) #0 {
entry:
  %s.addr = alloca ptr, align 8
  %posn.addr = alloca i32, align 4
  %i.addr = alloca i32, align 4
  store ptr %s, ptr %s.addr, align 8
  store i32 %posn, ptr %posn.addr, align 4
  store i32 %i, ptr %i.addr, align 4
  %0 = load ptr, ptr %s.addr, align 8
  %ivshmem_mmio = getelementptr inbounds %struct.IVShmemState, ptr %0, i32 0, i32 7
  %1 = load i32, ptr %posn.addr, align 4
  %shl = shl i32 %1, 16
  %2 = load i32, ptr %i.addr, align 4
  %or = or i32 %shl, %2
  %conv = sext i32 %or to i64
  %3 = load ptr, ptr %s.addr, align 8
  %peers = getelementptr inbounds %struct.IVShmemState, ptr %3, i32 0, i32 10
  %4 = load ptr, ptr %peers, align 16
  %5 = load i32, ptr %posn.addr, align 4
  %idxprom = sext i32 %5 to i64
  %arrayidx = getelementptr %struct.Peer, ptr %4, i64 %idxprom
  %eventfds = getelementptr inbounds %struct.Peer, ptr %arrayidx, i32 0, i32 1
  %6 = load ptr, ptr %eventfds, align 8
  %7 = load i32, ptr %i.addr, align 4
  %idxprom1 = sext i32 %7 to i64
  %arrayidx2 = getelementptr %struct.EventNotifier, ptr %6, i64 %idxprom1
  call void @memory_region_del_eventfd(ptr noundef %ivshmem_mmio, i64 noundef 12, i32 noundef 4, i1 noundef zeroext true, i64 noundef %conv, ptr noundef %arrayidx2)
  ret void
}

; Function Attrs: nounwind sspstrong uwtable
define internal i32 @ivshmem_has_feature(ptr noundef %ivs, i32 noundef %feature) #0 {
entry:
  %ivs.addr = alloca ptr, align 8
  %feature.addr = alloca i32, align 4
  store ptr %ivs, ptr %ivs.addr, align 8
  store i32 %feature, ptr %feature.addr, align 4
  %0 = load ptr, ptr %ivs.addr, align 8
  %features = getelementptr inbounds %struct.IVShmemState, ptr %0, i32 0, i32 1
  %1 = load i32, ptr %features, align 16
  %2 = load i32, ptr %feature.addr, align 4
  %shl = shl i32 1, %2
  %and = and i32 %1, %shl
  ret i32 %and
}

; Function Attrs: nounwind sspstrong uwtable
define internal void @close_peer_eventfds(ptr noundef %s, i32 noundef %posn) #0 {
entry:
  %s.addr = alloca ptr, align 8
  %posn.addr = alloca i32, align 4
  %i = alloca i32, align 4
  %n = alloca i32, align 4
  store ptr %s, ptr %s.addr, align 8
  store i32 %posn, ptr %posn.addr, align 4
  %0 = load i32, ptr %posn.addr, align 4
  %cmp = icmp sge i32 %0, 0
  br i1 %cmp, label %land.lhs.true, label %if.else

land.lhs.true:                                    ; preds = %entry
  %1 = load i32, ptr %posn.addr, align 4
  %2 = load ptr, ptr %s.addr, align 8
  %nb_peers = getelementptr inbounds %struct.IVShmemState, ptr %2, i32 0, i32 11
  %3 = load i32, ptr %nb_peers, align 8
  %cmp1 = icmp slt i32 %1, %3
  br i1 %cmp1, label %if.then, label %if.else

if.then:                                          ; preds = %land.lhs.true
  br label %if.end

if.else:                                          ; preds = %land.lhs.true, %entry
  call void @__assert_fail(ptr noundef @.str.28, ptr noundef @.str.7, i32 noundef 387, ptr noundef @__PRETTY_FUNCTION__.close_peer_eventfds) #7
  unreachable

if.end:                                           ; preds = %if.then
  %4 = load ptr, ptr %s.addr, align 8
  %peers = getelementptr inbounds %struct.IVShmemState, ptr %4, i32 0, i32 10
  %5 = load ptr, ptr %peers, align 16
  %6 = load i32, ptr %posn.addr, align 4
  %idxprom = sext i32 %6 to i64
  %arrayidx = getelementptr %struct.Peer, ptr %5, i64 %idxprom
  %nb_eventfds = getelementptr inbounds %struct.Peer, ptr %arrayidx, i32 0, i32 0
  %7 = load i32, ptr %nb_eventfds, align 8
  store i32 %7, ptr %n, align 4
  %8 = load ptr, ptr %s.addr, align 8
  %call = call i32 @ivshmem_has_feature(ptr noundef %8, i32 noundef 0)
  %tobool = icmp ne i32 %call, 0
  br i1 %tobool, label %if.then2, label %if.end4

if.then2:                                         ; preds = %if.end
  call void @memory_region_transaction_begin()
  store i32 0, ptr %i, align 4
  br label %for.cond

for.cond:                                         ; preds = %for.inc, %if.then2
  %9 = load i32, ptr %i, align 4
  %10 = load i32, ptr %n, align 4
  %cmp3 = icmp slt i32 %9, %10
  br i1 %cmp3, label %for.body, label %for.end

for.body:                                         ; preds = %for.cond
  %11 = load ptr, ptr %s.addr, align 8
  %12 = load i32, ptr %posn.addr, align 4
  %13 = load i32, ptr %i, align 4
  call void @ivshmem_del_eventfd(ptr noundef %11, i32 noundef %12, i32 noundef %13)
  br label %for.inc

for.inc:                                          ; preds = %for.body
  %14 = load i32, ptr %i, align 4
  %inc = add i32 %14, 1
  store i32 %inc, ptr %i, align 4
  br label %for.cond, !llvm.loop !10

for.end:                                          ; preds = %for.cond
  call void @memory_region_transaction_commit()
  br label %if.end4

if.end4:                                          ; preds = %for.end, %if.end
  store i32 0, ptr %i, align 4
  br label %for.cond5

for.cond5:                                        ; preds = %for.inc13, %if.end4
  %15 = load i32, ptr %i, align 4
  %16 = load i32, ptr %n, align 4
  %cmp6 = icmp slt i32 %15, %16
  br i1 %cmp6, label %for.body7, label %for.end15

for.body7:                                        ; preds = %for.cond5
  %17 = load ptr, ptr %s.addr, align 8
  %peers8 = getelementptr inbounds %struct.IVShmemState, ptr %17, i32 0, i32 10
  %18 = load ptr, ptr %peers8, align 16
  %19 = load i32, ptr %posn.addr, align 4
  %idxprom9 = sext i32 %19 to i64
  %arrayidx10 = getelementptr %struct.Peer, ptr %18, i64 %idxprom9
  %eventfds = getelementptr inbounds %struct.Peer, ptr %arrayidx10, i32 0, i32 1
  %20 = load ptr, ptr %eventfds, align 8
  %21 = load i32, ptr %i, align 4
  %idxprom11 = sext i32 %21 to i64
  %arrayidx12 = getelementptr %struct.EventNotifier, ptr %20, i64 %idxprom11
  call void @event_notifier_cleanup(ptr noundef %arrayidx12)
  br label %for.inc13

for.inc13:                                        ; preds = %for.body7
  %22 = load i32, ptr %i, align 4
  %inc14 = add i32 %22, 1
  store i32 %inc14, ptr %i, align 4
  br label %for.cond5, !llvm.loop !11

for.end15:                                        ; preds = %for.cond5
  %23 = load ptr, ptr %s.addr, align 8
  %peers16 = getelementptr inbounds %struct.IVShmemState, ptr %23, i32 0, i32 10
  %24 = load ptr, ptr %peers16, align 16
  %25 = load i32, ptr %posn.addr, align 4
  %idxprom17 = sext i32 %25 to i64
  %arrayidx18 = getelementptr %struct.Peer, ptr %24, i64 %idxprom17
  %eventfds19 = getelementptr inbounds %struct.Peer, ptr %arrayidx18, i32 0, i32 1
  %26 = load ptr, ptr %eventfds19, align 8
  call void @g_free(ptr noundef %26)
  %27 = load ptr, ptr %s.addr, align 8
  %peers20 = getelementptr inbounds %struct.IVShmemState, ptr %27, i32 0, i32 10
  %28 = load ptr, ptr %peers20, align 16
  %29 = load i32, ptr %posn.addr, align 4
  %idxprom21 = sext i32 %29 to i64
  %arrayidx22 = getelementptr %struct.Peer, ptr %28, i64 %idxprom21
  %nb_eventfds23 = getelementptr inbounds %struct.Peer, ptr %arrayidx22, i32 0, i32 0
  store i32 0, ptr %nb_eventfds23, align 8
  ret void
}