; Function Attrs: nounwind sspstrong uwtable
define internal fastcc void @close_peer_eventfds(ptr noundef %s, i32 noundef %posn) unnamed_addr #0 {
entry:
  %cmp = icmp sgt i32 %posn, -1
  br i1 %cmp, label %land.lhs.true, label %if.else

land.lhs.true:                                    ; preds = %entry
  %nb_peers = getelementptr inbounds nuw i8, ptr %s, i64 3272
  %0 = load i32, ptr %nb_peers, align 8
  %cmp1 = icmp slt i32 %posn, %0
  br i1 %cmp1, label %if.end, label %if.else

if.else:                                          ; preds = %land.lhs.true, %entry
  tail call void @__assert_fail(ptr noundef nonnull @.str.28, ptr noundef nonnull @.str.7, i32 noundef 387, ptr noundef nonnull @__PRETTY_FUNCTION__.close_peer_eventfds) #12
  unreachable

if.end:                                           ; preds = %land.lhs.true
  %peers = getelementptr inbounds nuw i8, ptr %s, i64 3264
  %1 = load ptr, ptr %peers, align 16
  %idxprom = zext nneg i32 %posn to i64
  %arrayidx = getelementptr %struct.Peer, ptr %1, i64 %idxprom
  %2 = load i32, ptr %arrayidx, align 8
  %3 = getelementptr i8, ptr %s, i64 2608
  %s.val = load i32, ptr %3, align 16
  %and.i = and i32 %s.val, 1
  %tobool.not = icmp eq i32 %and.i, 0
  br i1 %tobool.not, label %if.end4, label %if.then2

if.then2:                                         ; preds = %if.end
  tail call void @memory_region_transaction_begin() #11
  %cmp319 = icmp sgt i32 %2, 0
  br i1 %cmp319, label %for.body.lr.ph, label %for.end

for.body.lr.ph:                                   ; preds = %if.then2
  %ivshmem_mmio.i = getelementptr inbounds nuw i8, ptr %s, i64 2704
  %shl.i = shl i32 %posn, 16
  %wide.trip.count = zext nneg i32 %2 to i64
  br label %for.body

for.body:                                         ; preds = %for.body.lr.ph, %for.body
  %indvars.iv = phi i64 [ 0, %for.body.lr.ph ], [ %indvars.iv.next, %for.body ]
  %4 = trunc nuw nsw i64 %indvars.iv to i32
  %or.i = or i32 %shl.i, %4
  %conv.i = sext i32 %or.i to i64
  %5 = load ptr, ptr %peers, align 16
  %eventfds.i = getelementptr %struct.Peer, ptr %5, i64 %idxprom, i32 1
  %6 = load ptr, ptr %eventfds.i, align 8
  %arrayidx2.i = getelementptr %struct.EventNotifier, ptr %6, i64 %indvars.iv
  tail call void @memory_region_del_eventfd(ptr noundef nonnull %ivshmem_mmio.i, i64 noundef 12, i32 noundef 4, i1 noundef zeroext true, i64 noundef %conv.i, ptr noundef %arrayidx2.i) #11
  %indvars.iv.next = add nuw nsw i64 %indvars.iv, 1
  %exitcond.not = icmp eq i64 %indvars.iv.next, %wide.trip.count
  br i1 %exitcond.not, label %for.end, label %for.body, !llvm.loop !13

for.end:                                          ; preds = %for.body, %if.then2
  tail call void @memory_region_transaction_commit() #11
  br label %if.end4

if.end4:                                          ; preds = %for.end, %if.end
  %cmp621 = icmp sgt i32 %2, 0
  br i1 %cmp621, label %for.body7.preheader, label %for.end15

for.body7.preheader:                              ; preds = %if.end4
  %wide.trip.count27 = zext nneg i32 %2 to i64
  br label %for.body7

for.body7:                                        ; preds = %for.body7.preheader, %for.body7
  %indvars.iv24 = phi i64 [ 0, %for.body7.preheader ], [ %indvars.iv.next25, %for.body7 ]
  %7 = load ptr, ptr %peers, align 16
  %eventfds = getelementptr %struct.Peer, ptr %7, i64 %idxprom, i32 1
  %8 = load ptr, ptr %eventfds, align 8
  %arrayidx12 = getelementptr %struct.EventNotifier, ptr %8, i64 %indvars.iv24
  tail call void @event_notifier_cleanup(ptr noundef %arrayidx12) #11
  %indvars.iv.next25 = add nuw nsw i64 %indvars.iv24, 1
  %exitcond28.not = icmp eq i64 %indvars.iv.next25, %wide.trip.count27
  br i1 %exitcond28.not, label %for.end15, label %for.body7, !llvm.loop !14

for.end15:                                        ; preds = %for.body7, %if.end4
  %9 = load ptr, ptr %peers, align 16
  %eventfds19 = getelementptr %struct.Peer, ptr %9, i64 %idxprom, i32 1
  %10 = load ptr, ptr %eventfds19, align 8
  tail call void @g_free(ptr noundef %10) #11
  %11 = load ptr, ptr %peers, align 16
  %arrayidx22 = getelementptr %struct.Peer, ptr %11, i64 %idxprom
  store i32 0, ptr %arrayidx22, align 8
  ret void
}